; Function Attrs: nounwind uwtable
define hidden void @SplashStart(ptr noundef %0) local_unnamed_addr #2 {
  %2 = getelementptr inbounds i8, ptr %0, i64 11668
  %3 = load i32, ptr %2, align 4
  %4 = icmp eq i32 %3, 0
  br i1 %4, label %5, label %6

5:                                                ; preds = %1
  tail call void @SplashCreateThread(ptr noundef nonnull %0) #20
  store i32 1, ptr %2, align 4
  br label %6

6:                                                ; preds = %5, %1
  ret void
}